; ModuleID = '50/2211.c'
source_filename = "50/2211.c"
target datalayout = "e-m:e-p270:32:32-p271:32:32-p272:64:64-i64:64-f80:128-n8:16:32:64-S128"
target triple = "x86_64-pc-linux-gnu"

@.str = private unnamed_addr constant [3 x i8] c"%d\00", align 1
@.str.1 = private unnamed_addr constant [4 x i8] c"%d\0A\00", align 1

; Function Attrs: noinline nounwind uwtable
define dso_local i32 @main() #0 {
  %1 = alloca i32, align 4
  %2 = alloca [13 x i32], align 16
  %3 = alloca [13 x i32], align 16
  %4 = alloca i32, align 4
  %5 = alloca i32, align 4
  store i32 0, i32* %1, align 4
  %6 = getelementptr inbounds [13 x i32], [13 x i32]* %2, i64 0, i64 12
  store i32 31, i32* %6, align 16
  %7 = getelementptr inbounds [13 x i32], [13 x i32]* %2, i64 0, i64 10
  store i32 31, i32* %7, align 8
  %8 = getelementptr inbounds [13 x i32], [13 x i32]* %2, i64 0, i64 8
  store i32 31, i32* %8, align 16
  %9 = getelementptr inbounds [13 x i32], [13 x i32]* %2, i64 0, i64 7
  store i32 31, i32* %9, align 4
  %10 = getelementptr inbounds [13 x i32], [13 x i32]* %2, i64 0, i64 5
  store i32 31, i32* %10, align 4
  %11 = getelementptr inbounds [13 x i32], [13 x i32]* %2, i64 0, i64 3
  store i32 31, i32* %11, align 4
  %12 = getelementptr inbounds [13 x i32], [13 x i32]* %2, i64 0, i64 1
  store i32 31, i32* %12, align 4
  %13 = getelementptr inbounds [13 x i32], [13 x i32]* %2, i64 0, i64 11
  store i32 30, i32* %13, align 4
  %14 = getelementptr inbounds [13 x i32], [13 x i32]* %2, i64 0, i64 9
  store i32 30, i32* %14, align 4
  %15 = getelementptr inbounds [13 x i32], [13 x i32]* %2, i64 0, i64 6
  store i32 30, i32* %15, align 8
  %16 = getelementptr inbounds [13 x i32], [13 x i32]* %2, i64 0, i64 4
  store i32 30, i32* %16, align 16
  %17 = getelementptr inbounds [13 x i32], [13 x i32]* %2, i64 0, i64 2
  store i32 28, i32* %17, align 8
  %18 = getelementptr inbounds [13 x i32], [13 x i32]* %3, i64 0, i64 0
  store i32 0, i32* %18, align 16
  %19 = getelementptr inbounds [13 x i32], [13 x i32]* %2, i64 0, i64 1
  %20 = load i32, i32* %19, align 4
  %21 = getelementptr inbounds [13 x i32], [13 x i32]* %3, i64 0, i64 1
  store i32 %20, i32* %21, align 4
  store i32 2, i32* %4, align 4
  br label %22

22:                                               ; preds = %39, %0
  %23 = load i32, i32* %4, align 4
  %24 = icmp sle i32 %23, 12
  br i1 %24, label %25, label %42

25:                                               ; preds = %22
  %26 = load i32, i32* %4, align 4
  %27 = sub nsw i32 %26, 1
  %28 = sext i32 %27 to i64
  %29 = getelementptr inbounds [13 x i32], [13 x i32]* %3, i64 0, i64 %28
  %30 = load i32, i32* %29, align 4
  %31 = load i32, i32* %4, align 4
  %32 = sext i32 %31 to i64
  %33 = getelementptr inbounds [13 x i32], [13 x i32]* %2, i64 0, i64 %32
  %34 = load i32, i32* %33, align 4
  %35 = add nsw i32 %30, %34
  %36 = load i32, i32* %4, align 4
  %37 = sext i32 %36 to i64
  %38 = getelementptr inbounds [13 x i32], [13 x i32]* %3, i64 0, i64 %37
  store i32 %35, i32* %38, align 4
  br label %39

39:                                               ; preds = %25
  %40 = load i32, i32* %4, align 4
  %41 = add nsw i32 %40, 1
  store i32 %41, i32* %4, align 4
  br label %22

42:                                               ; preds = %22
  %43 = call i32 (i8*, ...) @__isoc99_scanf(i8* getelementptr inbounds ([3 x i8], [3 x i8]* @.str, i64 0, i64 0), i32* %5)
  store i32 1, i32* %4, align 4
  br label %44

44:                                               ; preds = %63, %42
  %45 = load i32, i32* %4, align 4
  %46 = icmp sle i32 %45, 12
  br i1 %46, label %47, label %66

47:                                               ; preds = %44
  %48 = load i32, i32* %4, align 4
  %49 = sub nsw i32 %48, 1
  %50 = sext i32 %49 to i64
  %51 = getelementptr inbounds [13 x i32], [13 x i32]* %3, i64 0, i64 %50
  %52 = load i32, i32* %51, align 4
  %53 = add nsw i32 %52, 12
  %54 = srem i32 %53, 7
  %55 = load i32, i32* %5, align 4
  %56 = add nsw i32 %54, %55
  %57 = srem i32 %56, 7
  %58 = icmp eq i32 %57, 5
  br i1 %58, label %59, label %62

59:                                               ; preds = %47
  %60 = load i32, i32* %4, align 4
  %61 = call i32 (i8*, ...) @printf(i8* getelementptr inbounds ([4 x i8], [4 x i8]* @.str.1, i64 0, i64 0), i32 %60)
  br label %62

62:                                               ; preds = %59, %47
  br label %63

63:                                               ; preds = %62
  %64 = load i32, i32* %4, align 4
  %65 = add nsw i32 %64, 1
  store i32 %65, i32* %4, align 4
  br label %44

66:                                               ; preds = %44
  ret i32 0
}

declare dso_local i32 @__isoc99_scanf(i8*, ...) #1

declare dso_local i32 @printf(i8*, ...) #1


!llvm.module.flags = !{!0}
!llvm.ident = !{!1}

!0 = !{i32 1, !"wchar_size", i32 4}
!1 = !{!"clang version 10.0.0-4ubuntu1 "}
